; Function Attrs: mustprogress uwtable
define noundef zeroext i1 @_ZN32pxrInternal_v0_24__pxrReserved__26PcpComposeSiteHasPrimSpecsERKNS_8TfRefPtrINS_13PcpLayerStackEEERKNS_7SdfPathE(ptr noundef nonnull readonly align 8 captures(none) dereferenceable(8) %0, ptr noundef nonnull align 4 dereferenceable(8) %1) local_unnamed_addr #0 {
  %3 = alloca %"class.pxrInternal_v0_24__pxrReserved__::TfCallContext", align 8
  %4 = alloca %"class.pxrInternal_v0_24__pxrReserved__::TfCallContext", align 8
  call void @llvm.lifetime.start.p0(i64 40, ptr nonnull %4)
  %5 = load ptr, ptr %0, align 8
  %.not.i = icmp eq ptr %5, null
  br i1 %.not.i, label %6, label %_ZNK32pxrInternal_v0_24__pxrReserved__8TfRefPtrINS_13PcpLayerStackEEptEv.exit

6:                                                ; preds = %2
  store ptr @.str.8, ptr %4, align 8
  %7 = getelementptr inbounds nuw i8, ptr %4, i64 8
  store ptr @__func__._ZNK32pxrInternal_v0_24__pxrReserved__15TfWeakPtrFacadeINS_9TfWeakPtrENS_8SdfLayerEEptEv, ptr %7, align 8
  %8 = getelementptr inbounds nuw i8, ptr %4, i64 16
  store i64 936, ptr %8, align 8
  %9 = getelementptr inbounds nuw i8, ptr %4, i64 24
  store ptr @__PRETTY_FUNCTION__._ZNK32pxrInternal_v0_24__pxrReserved__8TfRefPtrINS_13PcpLayerStackEEptEv, ptr %9, align 8
  %10 = getelementptr inbounds nuw i8, ptr %4, i64 32
  store i8 0, ptr %10, align 8
  call void @_ZN32pxrInternal_v0_24__pxrReserved__40Tf_PostNullSmartPtrDereferenceFatalErrorERKNS_13TfCallContextEPKc(ptr noundef nonnull align 8 dereferenceable(33) %4, ptr noundef nonnull @_ZTSN32pxrInternal_v0_24__pxrReserved__8TfRefPtrINS_13PcpLayerStackEEE) #24
  unreachable

_ZNK32pxrInternal_v0_24__pxrReserved__8TfRefPtrINS_13PcpLayerStackEEptEv.exit: ; preds = %2
  call void @llvm.lifetime.end.p0(i64 40, ptr nonnull %4)
  %11 = tail call noundef nonnull align 8 dereferenceable(24) ptr @_ZNK32pxrInternal_v0_24__pxrReserved__13PcpLayerStack9GetLayersEv(ptr noundef nonnull align 8 dereferenceable(617) %5)
  %12 = load ptr, ptr %11, align 8
  %13 = getelementptr inbounds nuw i8, ptr %11, i64 8
  %14 = load ptr, ptr %13, align 8
  %.not = icmp eq ptr %12, %14
  br i1 %.not, label %._crit_edge, label %.lr.ph

.lr.ph:                                           ; preds = %_ZNK32pxrInternal_v0_24__pxrReserved__8TfRefPtrINS_13PcpLayerStackEEptEv.exit, %_ZNK32pxrInternal_v0_24__pxrReserved__8TfRefPtrINS_8SdfLayerEEptEv.exit
  %.sroa.07.011 = phi ptr [ %22, %_ZNK32pxrInternal_v0_24__pxrReserved__8TfRefPtrINS_8SdfLayerEEptEv.exit ], [ %12, %_ZNK32pxrInternal_v0_24__pxrReserved__8TfRefPtrINS_13PcpLayerStackEEptEv.exit ]
  call void @llvm.lifetime.start.p0(i64 40, ptr nonnull %3)
  %15 = load ptr, ptr %.sroa.07.011, align 8
  %.not.i6 = icmp eq ptr %15, null
  br i1 %.not.i6, label %16, label %_ZNK32pxrInternal_v0_24__pxrReserved__8TfRefPtrINS_8SdfLayerEEptEv.exit

16:                                               ; preds = %.lr.ph
  store ptr @.str.8, ptr %3, align 8
  %17 = getelementptr inbounds nuw i8, ptr %3, i64 8
  store ptr @__func__._ZNK32pxrInternal_v0_24__pxrReserved__15TfWeakPtrFacadeINS_9TfWeakPtrENS_8SdfLayerEEptEv, ptr %17, align 8
  %18 = getelementptr inbounds nuw i8, ptr %3, i64 16
  store i64 936, ptr %18, align 8
  %19 = getelementptr inbounds nuw i8, ptr %3, i64 24
  store ptr @__PRETTY_FUNCTION__._ZNK32pxrInternal_v0_24__pxrReserved__8TfRefPtrINS_8SdfLayerEEptEv, ptr %19, align 8
  %20 = getelementptr inbounds nuw i8, ptr %3, i64 32
  store i8 0, ptr %20, align 8
  call void @_ZN32pxrInternal_v0_24__pxrReserved__40Tf_PostNullSmartPtrDereferenceFatalErrorERKNS_13TfCallContextEPKc(ptr noundef nonnull align 8 dereferenceable(33) %3, ptr noundef nonnull @_ZTSN32pxrInternal_v0_24__pxrReserved__8TfRefPtrINS_8SdfLayerEEE) #24
  unreachable

_ZNK32pxrInternal_v0_24__pxrReserved__8TfRefPtrINS_8SdfLayerEEptEv.exit: ; preds = %.lr.ph
  call void @llvm.lifetime.end.p0(i64 40, ptr nonnull %3)
  %21 = tail call noundef zeroext i1 @_ZNK32pxrInternal_v0_24__pxrReserved__8SdfLayer7HasSpecERKNS_7SdfPathE(ptr noundef nonnull align 8 dereferenceable(557) %15, ptr noundef nonnull align 4 dereferenceable(8) %1)
  %22 = getelementptr inbounds nuw i8, ptr %.sroa.07.011, i64 8
  %.not13 = icmp eq ptr %22, %14
  %or.cond = select i1 %21, i1 true, i1 %.not13
  br i1 %or.cond, label %._crit_edge, label %.lr.ph

._crit_edge:                                      ; preds = %_ZNK32pxrInternal_v0_24__pxrReserved__8TfRefPtrINS_8SdfLayerEEptEv.exit, %_ZNK32pxrInternal_v0_24__pxrReserved__8TfRefPtrINS_13PcpLayerStackEEptEv.exit
  %.lcssa = phi i1 [ false, %_ZNK32pxrInternal_v0_24__pxrReserved__8TfRefPtrINS_13PcpLayerStackEEptEv.exit ], [ %21, %_ZNK32pxrInternal_v0_24__pxrReserved__8TfRefPtrINS_8SdfLayerEEptEv.exit ]
  ret i1 %.lcssa
}